target datalayout = "e-m:e-p270:32:32-p271:32:32-p272:64:64-i64:64-i128:128-f80:128-n8:16:32:64-S128"
target triple = "x86_64-pc-linux-gnu"

%"class.OpenImageIO::v3_1_0::basic_string_view" = type { ptr, i64 }
%"struct.OpenImageIO::v3_1_0::ROI" = type { i32, i32, i32, i32, i32, i32, i32, i32 }
%"class.OpenImageIO::v3_1_0::ImageBuf" = type { %"class.std::unique_ptr.60" }
%"class.std::unique_ptr.60" = type { %"struct.std::__uniq_ptr_data.61" }
%"struct.std::__uniq_ptr_data.61" = type { %"class.std::__uniq_ptr_impl.62" }
%"class.std::__uniq_ptr_impl.62" = type { %"class.std::tuple.63" }
%"class.std::tuple.63" = type { %"struct.std::_Tuple_impl.64" }
%"struct.std::_Tuple_impl.64" = type { %"struct.std::_Tuple_impl.65", %"struct.std::_Head_base.67" }
%"struct.std::_Tuple_impl.65" = type { %"struct.std::_Head_base.66" }
%"struct.std::_Head_base.66" = type { ptr }
%"struct.std::_Head_base.67" = type { ptr }

@.str.73 = private unnamed_addr constant [35 x i8] c"ImageBufAlgo::colorconvert() error\00", align 1

; Function Attrs: mustprogress nounwind uwtable
define linkonce_odr hidden noundef i64 @_ZNK11OpenImageIO6v3_1_017basic_string_viewIcSt11char_traitsIcEE4sizeEv(ptr noundef nonnull align 8 dereferenceable(16) %0) #6 comdat align 2 {
  %2 = alloca ptr, align 8
  store ptr %0, ptr %2, align 8, !tbaa !10
  %3 = load ptr, ptr %2, align 8
  %4 = getelementptr inbounds nuw %"class.OpenImageIO::v3_1_0::basic_string_view", ptr %3, i32 0, i32 1
  %5 = load i64, ptr %4, align 8, !tbaa !17
  ret i64 %5
}

; Function Attrs: mustprogress nounwind uwtable
define linkonce_odr hidden noundef ptr @_ZNK11OpenImageIO6v3_1_017basic_string_viewIcSt11char_traitsIcEE4dataEv(ptr noundef nonnull align 8 dereferenceable(16) %0) #6 comdat align 2 {
  %2 = alloca ptr, align 8
  store ptr %0, ptr %2, align 8, !tbaa !10
  %3 = load ptr, ptr %2, align 8
  %4 = getelementptr inbounds nuw %"class.OpenImageIO::v3_1_0::basic_string_view", ptr %3, i32 0, i32 0
  %5 = load ptr, ptr %4, align 8, !tbaa !14
  ret ptr %5
}

; Function Attrs: mustprogress nounwind uwtable
define linkonce_odr hidden void @_ZN11OpenImageIO6v3_1_017basic_string_viewIcSt11char_traitsIcEEC2ERKS4_(ptr noundef nonnull align 8 dereferenceable(16) %0, ptr noundef nonnull align 8 dereferenceable(16) %1) unnamed_addr #6 comdat align 2 {
  %3 = alloca ptr, align 8
  %4 = alloca ptr, align 8
  store ptr %0, ptr %3, align 8, !tbaa !10
  store ptr %1, ptr %4, align 8, !tbaa !10
  %5 = load ptr, ptr %3, align 8
  %6 = getelementptr inbounds nuw %"class.OpenImageIO::v3_1_0::basic_string_view", ptr %5, i32 0, i32 0
  %7 = load ptr, ptr %4, align 8, !tbaa !10
  %8 = call noundef ptr @_ZNK11OpenImageIO6v3_1_017basic_string_viewIcSt11char_traitsIcEE4dataEv(ptr noundef nonnull align 8 dereferenceable(16) %7) #5
  store ptr %8, ptr %6, align 8, !tbaa !14
  %9 = getelementptr inbounds nuw %"class.OpenImageIO::v3_1_0::basic_string_view", ptr %5, i32 0, i32 1
  %10 = load ptr, ptr %4, align 8, !tbaa !10
  %11 = call noundef i64 @_ZNK11OpenImageIO6v3_1_017basic_string_viewIcSt11char_traitsIcEE4sizeEv(ptr noundef nonnull align 8 dereferenceable(16) %10) #5
  store i64 %11, ptr %9, align 8, !tbaa !17
  ret void
}

; Function Attrs: mustprogress uwtable
define void @_ZN11OpenImageIO6v3_1_012ImageBufAlgo12colorconvertERKNS0_8ImageBufENS0_17basic_string_viewIcSt11char_traitsIcEEES8_bS8_S8_PKNS0_11ColorConfigENS0_3ROIEi(ptr dead_on_unwind noalias writable sret(%"class.OpenImageIO::v3_1_0::ImageBuf") align 8 %0, ptr noundef nonnull align 8 dereferenceable(16) %1, ptr noundef %2, ptr noundef %3, i1 noundef zeroext %4, ptr noundef %5, ptr noundef %6, ptr noundef %7, ptr noundef byval(%"struct.OpenImageIO::v3_1_0::ROI") align 8 %8, i32 noundef %9) #7 personality ptr @__gxx_personality_v0 {
  %11 = alloca ptr, align 8
  %12 = alloca ptr, align 8
  %13 = alloca ptr, align 8
  %14 = alloca ptr, align 8
  %15 = alloca i8, align 1
  %16 = alloca ptr, align 8
  %17 = alloca ptr, align 8
  %18 = alloca ptr, align 8
  %19 = alloca i32, align 4
  %20 = alloca i1, align 1
  %21 = alloca i8, align 1
  %22 = alloca %"class.OpenImageIO::v3_1_0::basic_string_view", align 8
  %23 = alloca ptr, align 8
  %24 = alloca i32, align 4
  %25 = alloca %"class.OpenImageIO::v3_1_0::basic_string_view", align 8
  %26 = alloca %"class.OpenImageIO::v3_1_0::basic_string_view", align 8
  %27 = alloca %"class.OpenImageIO::v3_1_0::basic_string_view", align 8
  %28 = alloca %"struct.OpenImageIO::v3_1_0::ROI", align 8
  store ptr %0, ptr %11, align 8
  store ptr %1, ptr %12, align 8, !tbaa !317
  store ptr %2, ptr %13, align 8, !tbaa !10
  store ptr %3, ptr %14, align 8, !tbaa !10
  %29 = zext i1 %4 to i8
  store i8 %29, ptr %15, align 1, !tbaa !8
  store ptr %5, ptr %16, align 8, !tbaa !10
  store ptr %6, ptr %17, align 8, !tbaa !10
  store ptr %7, ptr %18, align 8, !tbaa !121
  store i32 %9, ptr %19, align 4, !tbaa !18
  store i1 false, ptr %20, align 1
  call void @_ZN11OpenImageIO6v3_1_08ImageBufC1Ev(ptr noundef nonnull align 8 dereferenceable(16) %0)
  call void @llvm.lifetime.start.p0(i64 1, ptr %21) #5
  %30 = load ptr, ptr %12, align 8, !tbaa !317
  invoke void @_ZN11OpenImageIO6v3_1_017basic_string_viewIcSt11char_traitsIcEEC2ERKS4_(ptr noundef nonnull align 8 dereferenceable(16) %22, ptr noundef nonnull align 8 dereferenceable(16) %2)
          to label %31 unwind label %49

31:                                               ; preds = %10
  invoke void @_ZN11OpenImageIO6v3_1_017basic_string_viewIcSt11char_traitsIcEEC2ERKS4_(ptr noundef nonnull align 8 dereferenceable(16) %25, ptr noundef nonnull align 8 dereferenceable(16) %3)
          to label %32 unwind label %49

32:                                               ; preds = %31
  %33 = load i8, ptr %15, align 1, !tbaa !8, !range !23, !noundef !24
  %34 = trunc i8 %33 to i1
  invoke void @_ZN11OpenImageIO6v3_1_017basic_string_viewIcSt11char_traitsIcEEC2ERKS4_(ptr noundef nonnull align 8 dereferenceable(16) %26, ptr noundef nonnull align 8 dereferenceable(16) %5)
          to label %35 unwind label %49

35:                                               ; preds = %32
  invoke void @_ZN11OpenImageIO6v3_1_017basic_string_viewIcSt11char_traitsIcEEC2ERKS4_(ptr noundef nonnull align 8 dereferenceable(16) %27, ptr noundef nonnull align 8 dereferenceable(16) %6)
          to label %36 unwind label %49

36:                                               ; preds = %35
  %37 = load ptr, ptr %18, align 8, !tbaa !121
  call void @llvm.memcpy.p0.p0.i64(ptr align 4 %28, ptr align 8 %8, i64 32, i1 false), !tbaa.struct !319
  %38 = load i32, ptr %19, align 4, !tbaa !18
  %39 = invoke noundef zeroext i1 @_ZN11OpenImageIO6v3_1_012ImageBufAlgo12colorconvertERNS0_8ImageBufERKS2_NS0_17basic_string_viewIcSt11char_traitsIcEEES9_bS9_S9_PKNS0_11ColorConfigENS0_3ROIEi(ptr noundef nonnull align 8 dereferenceable(16) %0, ptr noundef nonnull align 8 dereferenceable(16) %30, ptr noundef %22, ptr noundef %25, i1 noundef zeroext %34, ptr noundef %26, ptr noundef %27, ptr noundef %37, ptr noundef byval(%"struct.OpenImageIO::v3_1_0::ROI") align 8 %28, i32 noundef %38)
          to label %40 unwind label %49

40:                                               ; preds = %36
  %41 = zext i1 %39 to i8
  store i8 %41, ptr %21, align 1, !tbaa !8
  %42 = load i8, ptr %21, align 1, !tbaa !8, !range !23, !noundef !24
  %43 = trunc i8 %42 to i1
  br i1 %43, label %53, label %44

44:                                               ; preds = %40
  %45 = invoke noundef zeroext i1 @_ZNK11OpenImageIO6v3_1_08ImageBuf9has_errorEv(ptr noundef nonnull align 8 dereferenceable(16) %0)
          to label %46 unwind label %49

46:                                               ; preds = %44
  br i1 %45, label %53, label %47

47:                                               ; preds = %46
  invoke void @_ZNK11OpenImageIO6v3_1_08ImageBuf8errorfmtIA35_cJEEEvRKT_DpOT0_(ptr noundef nonnull align 8 dereferenceable(16) %0, ptr noundef nonnull align 1 dereferenceable(35) @.str.73)
          to label %48 unwind label %49

48:                                               ; preds = %47
  br label %53

49:                                               ; preds = %47, %44, %36, %35, %32, %31, %10
  %50 = landingpad { ptr, i32 }
          cleanup
  %51 = extractvalue { ptr, i32 } %50, 0
  store ptr %51, ptr %23, align 8
  %52 = extractvalue { ptr, i32 } %50, 1
  store i32 %52, ptr %24, align 4
  call void @llvm.lifetime.end.p0(i64 1, ptr %21) #5
  call void @_ZN11OpenImageIO6v3_1_08ImageBufD1Ev(ptr noundef nonnull align 8 dereferenceable(16) %0) #5
  br label %57

53:                                               ; preds = %48, %46, %40
  store i1 true, ptr %20, align 1
  call void @llvm.lifetime.end.p0(i64 1, ptr %21) #5
  %54 = load i1, ptr %20, align 1
  br i1 %54, label %56, label %55

55:                                               ; preds = %53
  call void @_ZN11OpenImageIO6v3_1_08ImageBufD1Ev(ptr noundef nonnull align 8 dereferenceable(16) %0) #5
  br label %56

56:                                               ; preds = %55, %53
  ret void

57:                                               ; preds = %49
  %58 = load ptr, ptr %23, align 8
  %59 = load i32, ptr %24, align 4
  %60 = insertvalue { ptr, i32 } poison, ptr %58, 0
  %61 = insertvalue { ptr, i32 } %60, i32 %59, 1
  resume { ptr, i32 } %61
}