; Function Attrs: mustprogress uwtable
define void @_ZN11OpenImageIO6v3_1_012ImageBufAlgo12colorconvertERKNS0_8ImageBufENS0_17basic_string_viewIcSt11char_traitsIcEEES8_bS8_S8_PKNS0_11ColorConfigENS0_3ROIEi(ptr dead_on_unwind noalias nonnull writable sret(%"class.OpenImageIO::v3_1_0::ImageBuf") align 8 %0, ptr noundef nonnull align 8 dereferenceable(16) %1, ptr noundef readonly captures(none) %2, ptr noundef readonly captures(none) %3, i1 noundef zeroext %4, ptr noundef readonly captures(none) %5, ptr noundef readonly captures(none) %6, ptr noundef %7, ptr noundef readonly byval(%"struct.OpenImageIO::v3_1_0::ROI") align 8 captures(none) %8, i32 noundef %9) local_unnamed_addr #5 personality ptr @__gxx_personality_v0 {
  %11 = alloca %"class.OpenImageIO::v3_1_0::basic_string_view", align 8
  %12 = alloca %"class.OpenImageIO::v3_1_0::basic_string_view", align 8
  %13 = alloca %"class.OpenImageIO::v3_1_0::basic_string_view", align 8
  %14 = alloca %"class.OpenImageIO::v3_1_0::basic_string_view", align 8
  tail call void @_ZN11OpenImageIO6v3_1_08ImageBufC1Ev(ptr noundef nonnull align 8 dereferenceable(16) %0)
  %15 = load ptr, ptr %2, align 8, !tbaa !4
  store ptr %15, ptr %11, align 8, !tbaa !4
  %16 = getelementptr inbounds nuw i8, ptr %11, i64 8
  %17 = getelementptr inbounds nuw i8, ptr %2, i64 8
  %18 = load i64, ptr %17, align 8, !tbaa !11
  store i64 %18, ptr %16, align 8, !tbaa !11
  %19 = load ptr, ptr %3, align 8, !tbaa !4
  store ptr %19, ptr %12, align 8, !tbaa !4
  %20 = getelementptr inbounds nuw i8, ptr %12, i64 8
  %21 = getelementptr inbounds nuw i8, ptr %3, i64 8
  %22 = load i64, ptr %21, align 8, !tbaa !11
  store i64 %22, ptr %20, align 8, !tbaa !11
  %23 = load ptr, ptr %5, align 8, !tbaa !4
  store ptr %23, ptr %13, align 8, !tbaa !4
  %24 = getelementptr inbounds nuw i8, ptr %13, i64 8
  %25 = getelementptr inbounds nuw i8, ptr %5, i64 8
  %26 = load i64, ptr %25, align 8, !tbaa !11
  store i64 %26, ptr %24, align 8, !tbaa !11
  %27 = load ptr, ptr %6, align 8, !tbaa !4
  store ptr %27, ptr %14, align 8, !tbaa !4
  %28 = getelementptr inbounds nuw i8, ptr %14, i64 8
  %29 = getelementptr inbounds nuw i8, ptr %6, i64 8
  %30 = load i64, ptr %29, align 8, !tbaa !11
  store i64 %30, ptr %28, align 8, !tbaa !11
  %31 = invoke noundef zeroext i1 @_ZN11OpenImageIO6v3_1_012ImageBufAlgo12colorconvertERNS0_8ImageBufERKS2_NS0_17basic_string_viewIcSt11char_traitsIcEEES9_bS9_S9_PKNS0_11ColorConfigENS0_3ROIEi(ptr noundef nonnull align 8 dereferenceable(16) %0, ptr noundef nonnull align 8 dereferenceable(16) %1, ptr noundef nonnull %11, ptr noundef nonnull %12, i1 noundef zeroext %4, ptr noundef nonnull %13, ptr noundef nonnull %14, ptr noundef %7, ptr noundef nonnull byval(%"struct.OpenImageIO::v3_1_0::ROI") align 8 %8, i32 noundef %9)
          to label %32 unwind label %37

32:                                               ; preds = %10
  br i1 %31, label %39, label %33

33:                                               ; preds = %32
  %34 = invoke noundef zeroext i1 @_ZNK11OpenImageIO6v3_1_08ImageBuf9has_errorEv(ptr noundef nonnull align 8 dereferenceable(16) %0)
          to label %35 unwind label %37

35:                                               ; preds = %33
  br i1 %34, label %39, label %36

36:                                               ; preds = %35
  invoke void @_ZNK11OpenImageIO6v3_1_08ImageBuf8errorfmtIA35_cJEEEvRKT_DpOT0_(ptr noundef nonnull align 8 dereferenceable(16) %0, ptr noundef nonnull align 1 dereferenceable(35) @.str.73)
          to label %39 unwind label %37

37:                                               ; preds = %36, %33, %10
  %38 = landingpad { ptr, i32 }
          cleanup
  call void @_ZN11OpenImageIO6v3_1_08ImageBufD1Ev(ptr noundef nonnull align 8 dereferenceable(16) %0) #34
  resume { ptr, i32 } %38

39:                                               ; preds = %32, %35, %36
  ret void
}